target datalayout = "e-m:e-p270:32:32-p271:32:32-p272:64:64-i64:64-i128:128-f80:128-n8:16:32:64-S128"
target triple = "x86_64-pc-linux-gnu"

%struct.jit_State = type { %struct.GCtrace, ptr, ptr, ptr, ptr, ptr, ptr, i32, i32, i32, i8, i8, %struct.IRType1, i8, %struct.FoldState, ptr, i32, i32, i32, i32, i32, i32, i32, [1 x i32], [5 x %union.TValue], [3 x %union.TValue], ptr, i32, i32, i32, i32, ptr, ptr, i32, i32, i8, ptr, i32, i32, i16, [101 x i16], [258 x i32], [15 x i32], [16 x ptr], [64 x %struct.HotPenalty], i32, [16 x %struct.BPropEntry], i32, %struct.ScEvEntry, ptr, i32, i32, i32, ptr, i32, i32, ptr, ptr, ptr, i64, i64, %union.TValue, ptr, i32, i32 }
%struct.GCtrace = type { %struct.GCRef, i8, i8, i16, i32, i32, %struct.GCRef, ptr, i32, i32, ptr, ptr, %struct.GCRef, %struct.MRef, i32, i32, ptr, i32, i16, i16, i16, i16, i16, i16, i16, i8, i8, i8, i8 }
%struct.GCRef = type { i64 }
%struct.MRef = type { i64 }
%struct.IRType1 = type { i8 }
%struct.FoldState = type { %union.IRIns, [2 x %union.IRIns], [2 x %union.IRIns] }
%union.IRIns = type { %struct.GCRef }
%struct.HotPenalty = type { %struct.MRef, i16, i16 }
%struct.BPropEntry = type { i16, i16, i32 }
%struct.ScEvEntry = type { %struct.MRef, i16, i16, i16, i16, %struct.IRType1, i8 }
%union.TValue = type { i64 }
%struct.anon.0 = type { i32, %struct.IRType1, i8, i8, i8 }
%struct.anon = type { i16, i16, i16, i16 }

; Function Attrs: nounwind uwtable
define internal i32 @fold_bufput_bufstr(ptr noundef %0) #0 {
  %2 = alloca i32, align 4
  %3 = alloca ptr, align 8
  %4 = alloca i32, align 4
  %5 = alloca i32, align 4
  %6 = alloca i32, align 4
  %7 = alloca ptr, align 8
  %8 = alloca ptr, align 8
  %9 = alloca ptr, align 8
  store ptr %0, ptr %3, align 8, !tbaa !4
  %10 = load ptr, ptr %3, align 8, !tbaa !4
  %11 = getelementptr inbounds nuw %struct.jit_State, ptr %10, i32 0, i32 7
  %12 = load i32, ptr %11, align 8, !tbaa !9
  %13 = and i32 %12, 524288
  %14 = icmp ne i32 %13, 0
  br i1 %14, label %15, label %276

15:                                               ; preds = %1
  call void @llvm.lifetime.start.p0(i64 4, ptr %4) #8
  %16 = load ptr, ptr %3, align 8, !tbaa !4
  %17 = getelementptr inbounds nuw %struct.jit_State, ptr %16, i32 0, i32 14
  %18 = getelementptr inbounds nuw %struct.FoldState, ptr %17, i32 0, i32 2
  %19 = getelementptr inbounds [2 x %union.IRIns], ptr %18, i64 0, i64 0
  %20 = getelementptr inbounds nuw %struct.anon, ptr %19, i32 0, i32 1
  %21 = load i16, ptr %20, align 2, !tbaa !29
  %22 = zext i16 %21 to i32
  store i32 %22, ptr %4, align 4, !tbaa !30
  %23 = load ptr, ptr %3, align 8, !tbaa !4
  %24 = getelementptr inbounds nuw %struct.jit_State, ptr %23, i32 0, i32 14
  %25 = getelementptr inbounds nuw %struct.FoldState, ptr %24, i32 0, i32 1
  %26 = getelementptr inbounds [2 x %union.IRIns], ptr %25, i64 0, i64 0
  %27 = getelementptr inbounds nuw %struct.anon.0, ptr %26, i32 0, i32 2
  %28 = load i8, ptr %27, align 1, !tbaa !29
  %29 = zext i8 %28 to i32
  %30 = icmp eq i32 %29, 85
  br i1 %30, label %31, label %130

31:                                               ; preds = %15
  %32 = load ptr, ptr %3, align 8, !tbaa !4
  %33 = getelementptr inbounds nuw %struct.jit_State, ptr %32, i32 0, i32 14
  %34 = getelementptr inbounds nuw %struct.FoldState, ptr %33, i32 0, i32 1
  %35 = getelementptr inbounds [2 x %union.IRIns], ptr %34, i64 0, i64 0
  %36 = getelementptr inbounds nuw %struct.anon, ptr %35, i32 0, i32 1
  %37 = load i16, ptr %36, align 2, !tbaa !29
  %38 = zext i16 %37 to i32
  %39 = icmp eq i32 %38, 0
  br i1 %39, label %40, label %130

40:                                               ; preds = %31
  %41 = load ptr, ptr %3, align 8, !tbaa !4
  %42 = getelementptr inbounds nuw %struct.jit_State, ptr %41, i32 0, i32 14
  %43 = getelementptr inbounds nuw %struct.FoldState, ptr %42, i32 0, i32 1
  %44 = getelementptr inbounds [2 x %union.IRIns], ptr %43, i64 0, i64 0
  %45 = getelementptr inbounds nuw %struct.anon, ptr %44, i32 0, i32 3
  %46 = load i16, ptr %45, align 2, !tbaa !29
  %47 = zext i16 %46 to i32
  %48 = load i32, ptr %4, align 4, !tbaa !30
  %49 = icmp eq i32 %47, %48
  br i1 %49, label %50, label %130

50:                                               ; preds = %40
  %51 = load ptr, ptr %3, align 8, !tbaa !4
  %52 = getelementptr inbounds nuw %struct.jit_State, ptr %51, i32 0, i32 14
  %53 = getelementptr inbounds nuw %struct.FoldState, ptr %52, i32 0, i32 1
  %54 = getelementptr inbounds [2 x %union.IRIns], ptr %53, i64 0, i64 0
  %55 = getelementptr inbounds nuw %struct.anon, ptr %54, i32 0, i32 0
  %56 = load i16, ptr %55, align 8, !tbaa !29
  %57 = zext i16 %56 to i32
  %58 = load ptr, ptr %3, align 8, !tbaa !4
  %59 = getelementptr inbounds nuw %struct.jit_State, ptr %58, i32 0, i32 0
  %60 = getelementptr inbounds nuw %struct.GCtrace, ptr %59, i32 0, i32 7
  %61 = load ptr, ptr %60, align 8, !tbaa !32
  %62 = load i32, ptr %4, align 4, !tbaa !30
  %63 = zext i32 %62 to i64
  %64 = getelementptr inbounds nuw %union.IRIns, ptr %61, i64 %63
  %65 = getelementptr inbounds nuw %struct.anon, ptr %64, i32 0, i32 0
  %66 = load i16, ptr %65, align 8, !tbaa !29
  %67 = zext i16 %66 to i32
  %68 = icmp eq i32 %57, %67
  br i1 %68, label %69, label %130

69:                                               ; preds = %50
  %70 = load ptr, ptr %3, align 8, !tbaa !4
  %71 = getelementptr inbounds nuw %struct.jit_State, ptr %70, i32 0, i32 14
  %72 = getelementptr inbounds nuw %struct.FoldState, ptr %71, i32 0, i32 2
  %73 = getelementptr inbounds [2 x %union.IRIns], ptr %72, i64 0, i64 0
  %74 = getelementptr inbounds nuw %struct.anon.0, ptr %73, i32 0, i32 1
  %75 = getelementptr inbounds nuw %struct.IRType1, ptr %74, i32 0, i32 0
  %76 = load i8, ptr %75, align 4, !tbaa !29
  %77 = zext i8 %76 to i32
  %78 = and i32 %77, 64
  %79 = icmp ne i32 %78, 0
  br i1 %79, label %80, label %92

80:                                               ; preds = %69
  %81 = load ptr, ptr %3, align 8, !tbaa !4
  %82 = getelementptr inbounds nuw %struct.jit_State, ptr %81, i32 0, i32 0
  %83 = getelementptr inbounds nuw %struct.GCtrace, ptr %82, i32 0, i32 7
  %84 = load ptr, ptr %83, align 8, !tbaa !32
  %85 = load i32, ptr %4, align 4, !tbaa !30
  %86 = zext i32 %85 to i64
  %87 = getelementptr inbounds nuw %union.IRIns, ptr %84, i64 %86
  %88 = getelementptr inbounds nuw %struct.anon, ptr %87, i32 0, i32 3
  %89 = load i16, ptr %88, align 2, !tbaa !29
  %90 = zext i16 %89 to i32
  %91 = icmp ne i32 %90, 0
  br i1 %91, label %130, label %92

92:                                               ; preds = %80, %69
  %93 = load ptr, ptr %3, align 8, !tbaa !4
  %94 = getelementptr inbounds nuw %struct.jit_State, ptr %93, i32 0, i32 40
  %95 = getelementptr inbounds [101 x i16], ptr %94, i64 0, i64 96
  %96 = load i16, ptr %95, align 2, !tbaa !35
  %97 = zext i16 %96 to i32
  %98 = load i32, ptr %4, align 4, !tbaa !30
  %99 = icmp ult i32 %97, %98
  br i1 %99, label %100, label %130

100:                                              ; preds = %92
  call void @llvm.lifetime.start.p0(i64 4, ptr %5) #8
  %101 = load ptr, ptr %3, align 8, !tbaa !4
  %102 = getelementptr inbounds nuw %struct.jit_State, ptr %101, i32 0, i32 14
  %103 = getelementptr inbounds nuw %struct.FoldState, ptr %102, i32 0, i32 0
  %104 = getelementptr inbounds nuw %struct.anon, ptr %103, i32 0, i32 0
  %105 = load i16, ptr %104, align 8, !tbaa !29
  %106 = zext i16 %105 to i32
  store i32 %106, ptr %5, align 4, !tbaa !30
  %107 = load ptr, ptr %3, align 8, !tbaa !4
  %108 = getelementptr inbounds nuw %struct.jit_State, ptr %107, i32 0, i32 0
  %109 = getelementptr inbounds nuw %struct.GCtrace, ptr %108, i32 0, i32 7
  %110 = load ptr, ptr %109, align 8, !tbaa !32
  %111 = load i32, ptr %5, align 4, !tbaa !30
  %112 = zext i32 %111 to i64
  %113 = getelementptr inbounds nuw %union.IRIns, ptr %110, i64 %112
  %114 = getelementptr inbounds nuw %struct.anon, ptr %113, i32 0, i32 1
  store i16 1, ptr %114, align 2, !tbaa !29
  %115 = load ptr, ptr %3, align 8, !tbaa !4
  %116 = getelementptr inbounds nuw %struct.jit_State, ptr %115, i32 0, i32 14
  %117 = getelementptr inbounds nuw %struct.FoldState, ptr %116, i32 0, i32 2
  %118 = getelementptr inbounds [2 x %union.IRIns], ptr %117, i64 0, i64 0
  %119 = getelementptr inbounds nuw %struct.anon, ptr %118, i32 0, i32 0
  %120 = load i16, ptr %119, align 8, !tbaa !29
  %121 = load ptr, ptr %3, align 8, !tbaa !4
  %122 = getelementptr inbounds nuw %struct.jit_State, ptr %121, i32 0, i32 0
  %123 = getelementptr inbounds nuw %struct.GCtrace, ptr %122, i32 0, i32 7
  %124 = load ptr, ptr %123, align 8, !tbaa !32
  %125 = load i32, ptr %5, align 4, !tbaa !30
  %126 = zext i32 %125 to i64
  %127 = getelementptr inbounds nuw %union.IRIns, ptr %124, i64 %126
  %128 = getelementptr inbounds nuw %struct.anon, ptr %127, i32 0, i32 0
  store i16 %120, ptr %128, align 8, !tbaa !29
  %129 = load i32, ptr %5, align 4, !tbaa !30
  store i32 %129, ptr %2, align 4
  store i32 1, ptr %6, align 4
  call void @llvm.lifetime.end.p0(i64 4, ptr %5) #8
  br label %273

130:                                              ; preds = %92, %80, %50, %40, %31, %15
  %131 = load ptr, ptr %3, align 8, !tbaa !4
  %132 = getelementptr inbounds nuw %struct.jit_State, ptr %131, i32 0, i32 0
  %133 = getelementptr inbounds nuw %struct.GCtrace, ptr %132, i32 0, i32 7
  %134 = load ptr, ptr %133, align 8, !tbaa !32
  %135 = load i32, ptr %4, align 4, !tbaa !30
  %136 = zext i32 %135 to i64
  %137 = getelementptr inbounds nuw %union.IRIns, ptr %134, i64 %136
  %138 = getelementptr inbounds nuw %struct.anon, ptr %137, i32 0, i32 1
  %139 = load i16, ptr %138, align 2, !tbaa !29
  %140 = zext i16 %139 to i32
  %141 = icmp eq i32 %140, 0
  br i1 %141, label %142, label %272

142:                                              ; preds = %130
  %143 = load ptr, ptr %3, align 8, !tbaa !4
  %144 = getelementptr inbounds nuw %struct.jit_State, ptr %143, i32 0, i32 14
  %145 = getelementptr inbounds nuw %struct.FoldState, ptr %144, i32 0, i32 2
  %146 = getelementptr inbounds [2 x %union.IRIns], ptr %145, i64 0, i64 0
  %147 = getelementptr inbounds nuw %struct.anon.0, ptr %146, i32 0, i32 1
  %148 = getelementptr inbounds nuw %struct.IRType1, ptr %147, i32 0, i32 0
  %149 = load i8, ptr %148, align 4, !tbaa !29
  %150 = zext i8 %149 to i32
  %151 = and i32 %150, 64
  %152 = icmp ne i32 %151, 0
  br i1 %152, label %272, label %153

153:                                              ; preds = %142
  call void @llvm.lifetime.start.p0(i64 8, ptr %7) #8
  %154 = load ptr, ptr %3, align 8, !tbaa !4
  %155 = getelementptr inbounds nuw %struct.jit_State, ptr %154, i32 0, i32 0
  %156 = getelementptr inbounds nuw %struct.GCtrace, ptr %155, i32 0, i32 7
  %157 = load ptr, ptr %156, align 8, !tbaa !32
  %158 = load ptr, ptr %3, align 8, !tbaa !4
  %159 = getelementptr inbounds nuw %struct.jit_State, ptr %158, i32 0, i32 14
  %160 = getelementptr inbounds nuw %struct.FoldState, ptr %159, i32 0, i32 2
  %161 = getelementptr inbounds [2 x %union.IRIns], ptr %160, i64 0, i64 0
  %162 = getelementptr inbounds nuw %struct.anon, ptr %161, i32 0, i32 0
  %163 = load i16, ptr %162, align 8, !tbaa !29
  %164 = zext i16 %163 to i64
  %165 = getelementptr inbounds nuw %union.IRIns, ptr %157, i64 %164
  store ptr %165, ptr %7, align 8, !tbaa !38
  %166 = load ptr, ptr %7, align 8, !tbaa !38
  %167 = getelementptr inbounds nuw %struct.anon.0, ptr %166, i32 0, i32 2
  %168 = load i8, ptr %167, align 1, !tbaa !29
  %169 = zext i8 %168 to i32
  %170 = icmp eq i32 %169, 97
  br i1 %170, label %171, label %268

171:                                              ; preds = %153
  %172 = load ptr, ptr %7, align 8, !tbaa !38
  %173 = getelementptr inbounds nuw %struct.anon, ptr %172, i32 0, i32 1
  %174 = load i16, ptr %173, align 2, !tbaa !29
  %175 = zext i16 %174 to i32
  %176 = icmp sge i32 %175, 19
  br i1 %176, label %177, label %268

177:                                              ; preds = %171
  %178 = load ptr, ptr %7, align 8, !tbaa !38
  %179 = getelementptr inbounds nuw %struct.anon, ptr %178, i32 0, i32 1
  %180 = load i16, ptr %179, align 2, !tbaa !29
  %181 = zext i16 %180 to i32
  %182 = icmp sle i32 %181, 22
  br i1 %182, label %183, label %268

183:                                              ; preds = %177
  call void @llvm.lifetime.start.p0(i64 8, ptr %8) #8
  %184 = load ptr, ptr %3, align 8, !tbaa !4
  %185 = getelementptr inbounds nuw %struct.jit_State, ptr %184, i32 0, i32 0
  %186 = getelementptr inbounds nuw %struct.GCtrace, ptr %185, i32 0, i32 7
  %187 = load ptr, ptr %186, align 8, !tbaa !32
  %188 = load ptr, ptr %7, align 8, !tbaa !38
  %189 = getelementptr inbounds nuw %struct.anon, ptr %188, i32 0, i32 0
  %190 = load i16, ptr %189, align 8, !tbaa !29
  %191 = zext i16 %190 to i64
  %192 = getelementptr inbounds nuw %union.IRIns, ptr %187, i64 %191
  store ptr %192, ptr %8, align 8, !tbaa !38
  %193 = load ptr, ptr %7, align 8, !tbaa !38
  %194 = getelementptr inbounds nuw %struct.anon, ptr %193, i32 0, i32 1
  %195 = load i16, ptr %194, align 2, !tbaa !29
  %196 = zext i16 %195 to i32
  %197 = icmp eq i32 %196, 22
  br i1 %197, label %198, label %239

198:                                              ; preds = %183
  call void @llvm.lifetime.start.p0(i64 8, ptr %9) #8
  %199 = load ptr, ptr %3, align 8, !tbaa !4
  %200 = getelementptr inbounds nuw %struct.jit_State, ptr %199, i32 0, i32 0
  %201 = getelementptr inbounds nuw %struct.GCtrace, ptr %200, i32 0, i32 7
  %202 = load ptr, ptr %201, align 8, !tbaa !32
  %203 = load ptr, ptr %8, align 8, !tbaa !38
  %204 = getelementptr inbounds nuw %struct.anon, ptr %203, i32 0, i32 0
  %205 = load i16, ptr %204, align 8, !tbaa !29
  %206 = zext i16 %205 to i64
  %207 = getelementptr inbounds nuw %union.IRIns, ptr %202, i64 %206
  store ptr %207, ptr %9, align 8, !tbaa !38
  %208 = load ptr, ptr %9, align 8, !tbaa !38
  %209 = getelementptr inbounds nuw %struct.anon, ptr %208, i32 0, i32 0
  %210 = load i16, ptr %209, align 8, !tbaa !29
  %211 = zext i16 %210 to i32
  %212 = load i32, ptr %4, align 4, !tbaa !30
  %213 = icmp eq i32 %211, %212
  br i1 %213, label %214, label %235

214:                                              ; preds = %198
  %215 = load ptr, ptr %3, align 8, !tbaa !4
  %216 = load ptr, ptr %7, align 8, !tbaa !38
  %217 = getelementptr inbounds nuw %struct.anon, ptr %216, i32 0, i32 1
  %218 = load i16, ptr %217, align 2, !tbaa !29
  %219 = zext i16 %218 to i32
  %220 = load ptr, ptr %3, align 8, !tbaa !4
  %221 = getelementptr inbounds nuw %struct.jit_State, ptr %220, i32 0, i32 14
  %222 = getelementptr inbounds nuw %struct.FoldState, ptr %221, i32 0, i32 0
  %223 = getelementptr inbounds nuw %struct.anon, ptr %222, i32 0, i32 0
  %224 = load i16, ptr %223, align 8, !tbaa !29
  %225 = zext i16 %224 to i32
  %226 = load ptr, ptr %9, align 8, !tbaa !38
  %227 = getelementptr inbounds nuw %struct.anon, ptr %226, i32 0, i32 1
  %228 = load i16, ptr %227, align 2, !tbaa !29
  %229 = zext i16 %228 to i32
  %230 = load ptr, ptr %8, align 8, !tbaa !38
  %231 = getelementptr inbounds nuw %struct.anon, ptr %230, i32 0, i32 1
  %232 = load i16, ptr %231, align 2, !tbaa !29
  %233 = zext i16 %232 to i32
  %234 = call i32 (ptr, i32, ...) @lj_ir_call(ptr noundef %215, i32 noundef %219, i32 noundef %225, i32 noundef %229, i32 noundef %233)
  store i32 %234, ptr %2, align 4
  store i32 1, ptr %6, align 4
  br label %236

235:                                              ; preds = %198
  store i32 0, ptr %6, align 4
  br label %236

236:                                              ; preds = %235, %214
  call void @llvm.lifetime.end.p0(i64 8, ptr %9) #8
  %237 = load i32, ptr %6, align 4
  switch i32 %237, label %265 [
    i32 0, label %238
  ]

238:                                              ; preds = %236
  br label %264

239:                                              ; preds = %183
  %240 = load ptr, ptr %8, align 8, !tbaa !38
  %241 = getelementptr inbounds nuw %struct.anon, ptr %240, i32 0, i32 0
  %242 = load i16, ptr %241, align 8, !tbaa !29
  %243 = zext i16 %242 to i32
  %244 = load i32, ptr %4, align 4, !tbaa !30
  %245 = icmp eq i32 %243, %244
  br i1 %245, label %246, label %263

246:                                              ; preds = %239
  %247 = load ptr, ptr %3, align 8, !tbaa !4
  %248 = load ptr, ptr %7, align 8, !tbaa !38
  %249 = getelementptr inbounds nuw %struct.anon, ptr %248, i32 0, i32 1
  %250 = load i16, ptr %249, align 2, !tbaa !29
  %251 = zext i16 %250 to i32
  %252 = load ptr, ptr %3, align 8, !tbaa !4
  %253 = getelementptr inbounds nuw %struct.jit_State, ptr %252, i32 0, i32 14
  %254 = getelementptr inbounds nuw %struct.FoldState, ptr %253, i32 0, i32 0
  %255 = getelementptr inbounds nuw %struct.anon, ptr %254, i32 0, i32 0
  %256 = load i16, ptr %255, align 8, !tbaa !29
  %257 = zext i16 %256 to i32
  %258 = load ptr, ptr %8, align 8, !tbaa !38
  %259 = getelementptr inbounds nuw %struct.anon, ptr %258, i32 0, i32 1
  %260 = load i16, ptr %259, align 2, !tbaa !29
  %261 = zext i16 %260 to i32
  %262 = call i32 (ptr, i32, ...) @lj_ir_call(ptr noundef %247, i32 noundef %251, i32 noundef %257, i32 noundef %261)
  store i32 %262, ptr %2, align 4
  store i32 1, ptr %6, align 4
  br label %265

263:                                              ; preds = %239
  br label %264

264:                                              ; preds = %263, %238
  store i32 0, ptr %6, align 4
  br label %265

265:                                              ; preds = %264, %246, %236
  call void @llvm.lifetime.end.p0(i64 8, ptr %8) #8
  %266 = load i32, ptr %6, align 4
  switch i32 %266, label %269 [
    i32 0, label %267
  ]

267:                                              ; preds = %265
  br label %268

268:                                              ; preds = %267, %177, %171, %153
  store i32 0, ptr %6, align 4
  br label %269

269:                                              ; preds = %268, %265
  call void @llvm.lifetime.end.p0(i64 8, ptr %7) #8
  %270 = load i32, ptr %6, align 4
  switch i32 %270, label %273 [
    i32 0, label %271
  ]

271:                                              ; preds = %269
  br label %272

272:                                              ; preds = %271, %142, %130
  store i32 0, ptr %6, align 4
  br label %273

273:                                              ; preds = %272, %269, %100
  call void @llvm.lifetime.end.p0(i64 4, ptr %4) #8
  %274 = load i32, ptr %6, align 4
  switch i32 %274, label %281 [
    i32 0, label %275
    i32 1, label %279
  ]

275:                                              ; preds = %273
  br label %276

276:                                              ; preds = %275, %1
  %277 = load ptr, ptr %3, align 8, !tbaa !4
  %278 = call i32 @lj_ir_emit(ptr noundef %277)
  store i32 %278, ptr %2, align 4
  br label %279

279:                                              ; preds = %276, %273
  %280 = load i32, ptr %2, align 4
  ret i32 %280

281:                                              ; preds = %273
  unreachable
}