; Function Attrs: nounwind uwtable
define internal i32 @fold_bufput_bufstr(ptr noundef %0) #0 {
  %2 = getelementptr inbounds nuw i8, ptr %0, i64 168
  %3 = load i32, ptr %2, align 8, !tbaa !4
  %4 = and i32 %3, 524288
  %.not = icmp eq i32 %4, 0
  br i1 %.not, label %.thread77, label %5

5:                                                ; preds = %1
  %6 = getelementptr inbounds nuw i8, ptr %0, i64 184
  %7 = getelementptr inbounds nuw i8, ptr %0, i64 208
  %8 = getelementptr inbounds nuw i8, ptr %0, i64 210
  %9 = load i16, ptr %8, align 2, !tbaa !28
  %10 = getelementptr inbounds nuw i8, ptr %0, i64 192
  %11 = getelementptr inbounds nuw i8, ptr %0, i64 197
  %12 = load i8, ptr %11, align 1, !tbaa !28
  %13 = icmp eq i8 %12, 85
  br i1 %13, label %14, label %50

14:                                               ; preds = %5
  %15 = getelementptr inbounds nuw i8, ptr %0, i64 194
  %16 = load i16, ptr %15, align 2, !tbaa !28
  %17 = icmp eq i16 %16, 0
  br i1 %17, label %18, label %50

18:                                               ; preds = %14
  %19 = getelementptr inbounds nuw i8, ptr %0, i64 198
  %20 = load i16, ptr %19, align 2, !tbaa !28
  %21 = icmp eq i16 %20, %9
  br i1 %21, label %22, label %50

22:                                               ; preds = %18
  %23 = load i16, ptr %10, align 8, !tbaa !28
  %24 = getelementptr inbounds nuw i8, ptr %0, i64 32
  %25 = load ptr, ptr %24, align 8, !tbaa !30
  %26 = zext i16 %9 to i64
  %27 = getelementptr inbounds nuw %union.IRIns, ptr %25, i64 %26
  %28 = load i16, ptr %27, align 8, !tbaa !28
  %29 = icmp eq i16 %23, %28
  br i1 %29, label %30, label %50

30:                                               ; preds = %22
  %31 = getelementptr inbounds nuw i8, ptr %0, i64 212
  %32 = load i8, ptr %31, align 4, !tbaa !28
  %33 = and i8 %32, 64
  %.not60 = icmp eq i8 %33, 0
  br i1 %.not60, label %37, label %34

34:                                               ; preds = %30
  %35 = getelementptr inbounds nuw i8, ptr %27, i64 6
  %36 = load i16, ptr %35, align 2, !tbaa !28
  %.not61 = icmp eq i16 %36, 0
  br i1 %.not61, label %37, label %50

37:                                               ; preds = %34, %30
  %38 = getelementptr inbounds nuw i8, ptr %0, i64 594
  %39 = load i16, ptr %38, align 2, !tbaa !38
  %40 = icmp ult i16 %39, %9
  br i1 %40, label %41, label %50

41:                                               ; preds = %37
  %42 = load i16, ptr %6, align 8, !tbaa !28
  %43 = zext i16 %42 to i32
  %44 = zext i16 %42 to i64
  %45 = getelementptr inbounds nuw %union.IRIns, ptr %25, i64 %44
  %46 = getelementptr inbounds nuw i8, ptr %45, i64 2
  store i16 1, ptr %46, align 2, !tbaa !28
  %47 = load i16, ptr %7, align 8, !tbaa !28
  %48 = load ptr, ptr %24, align 8, !tbaa !30
  %49 = getelementptr inbounds nuw %union.IRIns, ptr %48, i64 %44
  store i16 %47, ptr %49, align 8, !tbaa !28
  br label %103

50:                                               ; preds = %37, %34, %22, %18, %14, %5
  %51 = getelementptr inbounds nuw i8, ptr %0, i64 32
  %52 = load ptr, ptr %51, align 8, !tbaa !30
  %53 = zext i16 %9 to i64
  %54 = getelementptr inbounds nuw %union.IRIns, ptr %52, i64 %53
  %55 = getelementptr inbounds nuw i8, ptr %54, i64 2
  %56 = load i16, ptr %55, align 2, !tbaa !28
  %57 = icmp eq i16 %56, 0
  br i1 %57, label %58, label %.thread77

58:                                               ; preds = %50
  %59 = getelementptr inbounds nuw i8, ptr %0, i64 212
  %60 = load i8, ptr %59, align 4, !tbaa !28
  %61 = and i8 %60, 64
  %.not62 = icmp eq i8 %61, 0
  br i1 %.not62, label %62, label %.thread77

62:                                               ; preds = %58
  %63 = load i16, ptr %7, align 8, !tbaa !28
  %64 = zext i16 %63 to i64
  %65 = getelementptr inbounds nuw %union.IRIns, ptr %52, i64 %64
  %66 = getelementptr inbounds nuw i8, ptr %65, i64 5
  %67 = load i8, ptr %66, align 1, !tbaa !28
  %68 = icmp eq i8 %67, 97
  br i1 %68, label %69, label %.thread77

69:                                               ; preds = %62
  %70 = getelementptr inbounds nuw i8, ptr %65, i64 2
  %71 = load i16, ptr %70, align 2, !tbaa !28
  %72 = zext i16 %71 to i32
  %73 = add i16 %71, -19
  %or.cond = icmp ult i16 %73, 4
  br i1 %or.cond, label %74, label %.thread77

74:                                               ; preds = %69
  %75 = load i16, ptr %65, align 8, !tbaa !28
  %76 = zext i16 %75 to i64
  %77 = getelementptr inbounds nuw %union.IRIns, ptr %52, i64 %76
  %78 = icmp eq i16 %71, 22
  %79 = load i16, ptr %77, align 8, !tbaa !28
  br i1 %78, label %80, label %84

80:                                               ; preds = %74
  %81 = zext i16 %79 to i64
  %82 = getelementptr inbounds nuw %union.IRIns, ptr %52, i64 %81
  %83 = load i16, ptr %82, align 8, !tbaa !28
  %.not63 = icmp eq i16 %83, %9
  br i1 %.not63, label %92, label %.thread77

84:                                               ; preds = %74
  %85 = icmp eq i16 %79, %9
  br i1 %85, label %.thread70, label %.thread77

.thread70:                                        ; preds = %84
  %86 = load i16, ptr %6, align 8, !tbaa !28
  %87 = zext i16 %86 to i32
  %88 = getelementptr inbounds nuw i8, ptr %77, i64 2
  %89 = load i16, ptr %88, align 2, !tbaa !28
  %90 = zext i16 %89 to i32
  %91 = tail call i32 (ptr, i32, ...) @lj_ir_call(ptr noundef nonnull %0, i32 noundef %72, i32 noundef %87, i32 noundef %90) #12
  br label %103

92:                                               ; preds = %80
  %93 = load i16, ptr %6, align 8, !tbaa !28
  %94 = zext i16 %93 to i32
  %95 = getelementptr inbounds nuw i8, ptr %82, i64 2
  %96 = load i16, ptr %95, align 2, !tbaa !28
  %97 = zext i16 %96 to i32
  %98 = getelementptr inbounds nuw i8, ptr %77, i64 2
  %99 = load i16, ptr %98, align 2, !tbaa !28
  %100 = zext i16 %99 to i32
  %101 = tail call i32 (ptr, i32, ...) @lj_ir_call(ptr noundef nonnull %0, i32 noundef 22, i32 noundef %94, i32 noundef %97, i32 noundef %100) #12
  br label %103

.thread77:                                        ; preds = %84, %62, %69, %80, %50, %58, %1
  %102 = tail call i32 @lj_ir_emit(ptr noundef nonnull %0) #12
  br label %103

103:                                              ; preds = %41, %92, %.thread70, %.thread77
  %.7 = phi i32 [ %102, %.thread77 ], [ %43, %41 ], [ %101, %92 ], [ %91, %.thread70 ]
  ret i32 %.7
}